; Function Attrs: inlinehint mustprogress nounwind uwtable
define internal fastcc void @"_ZZZN17grpc_event_engine12experimental12AresResolver15OnTXTDoneLockedEPviiPhiENK3$_0clESt17basic_string_viewIcSt11char_traitsIcEEENUlvE_D2Ev"(ptr noundef nonnull align 16 dereferenceable(40) %0) unnamed_addr #8 align 2 personality ptr @__gxx_personality_v0 {
  %2 = getelementptr inbounds nuw i8, ptr %0, i64 32
  %3 = load i64, ptr %2, align 16, !tbaa !18
  %4 = and i64 %3, 1
  %.not.i.i = icmp eq i64 %4, 0
  br i1 %.not.i.i, label %5, label %_ZN4absl12lts_202407226StatusD2Ev.exit

5:                                                ; preds = %1
  %6 = inttoptr i64 %3 to ptr
  invoke void @_ZNK4absl12lts_2024072215status_internal9StatusRep5UnrefEv(ptr noundef nonnull align 8 dereferenceable(48) %6)
          to label %_ZN4absl12lts_202407226StatusD2Ev.exit unwind label %7

7:                                                ; preds = %5
  %8 = landingpad { ptr, i32 }
          catch ptr null
  %9 = extractvalue { ptr, i32 } %8, 0
  tail call void @__clang_call_terminate(ptr %9) #37
  unreachable

_ZN4absl12lts_202407226StatusD2Ev.exit:           ; preds = %1, %5
  %10 = getelementptr inbounds nuw i8, ptr %0, i64 16
  %11 = load ptr, ptr %10, align 16, !tbaa !294
  tail call void %11(i1 noundef zeroext true, ptr noundef nonnull align 16 dereferenceable(32) %0, ptr noundef nonnull align 16 dereferenceable(32) %0) #34
  ret void
}